; ModuleID = '42/1370.cpp'
source_filename = "42/1370.cpp"
target datalayout = "e-m:e-p270:32:32-p271:32:32-p272:64:64-i64:64-f80:128-n8:16:32:64-S128"
target triple = "x86_64-pc-linux-gnu"

%"class.std::ios_base::Init" = type { i8 }
%"class.std::basic_istream" = type { i32 (...)**, i64, %"class.std::basic_ios" }
%"class.std::basic_ios" = type { %"class.std::ios_base", %"class.std::basic_ostream"*, i8, i8, %"class.std::basic_streambuf"*, %"class.std::ctype"*, %"class.std::num_put"*, %"class.std::num_get"* }
%"class.std::ios_base" = type { i32 (...)**, i64, i64, i32, i32, i32, %"struct.std::ios_base::_Callback_list"*, %"struct.std::ios_base::_Words", [8 x %"struct.std::ios_base::_Words"], i32, %"struct.std::ios_base::_Words"*, %"class.std::locale" }
%"struct.std::ios_base::_Callback_list" = type { %"struct.std::ios_base::_Callback_list"*, void (i32, %"class.std::ios_base"*, i32)*, i32, i32 }
%"struct.std::ios_base::_Words" = type { i8*, i64 }
%"class.std::locale" = type { %"class.std::locale::_Impl"* }
%"class.std::locale::_Impl" = type { i32, %"class.std::locale::facet"**, i64, %"class.std::locale::facet"**, i8** }
%"class.std::locale::facet" = type <{ i32 (...)**, i32, [4 x i8] }>
%"class.std::basic_ostream" = type { i32 (...)**, %"class.std::basic_ios" }
%"class.std::basic_streambuf" = type { i32 (...)**, i8*, i8*, i8*, i8*, i8*, i8*, %"class.std::locale" }
%"class.std::ctype" = type <{ %"class.std::locale::facet.base", [4 x i8], %struct.__locale_struct*, i8, [7 x i8], i32*, i32*, i16*, i8, [256 x i8], [256 x i8], i8, [6 x i8] }>
%"class.std::locale::facet.base" = type <{ i32 (...)**, i32 }>
%struct.__locale_struct = type { [13 x %struct.__locale_data*], i16*, i32*, i32*, [13 x i8*] }
%struct.__locale_data = type opaque
%"class.std::num_put" = type { %"class.std::locale::facet.base", [4 x i8] }
%"class.std::num_get" = type { %"class.std::locale::facet.base", [4 x i8] }

@_ZStL8__ioinit = internal global %"class.std::ios_base::Init" zeroinitializer, align 1
@__dso_handle = external hidden global i8
@_ZSt3cin = external dso_local global %"class.std::basic_istream", align 8
@_ZSt4cout = external dso_local global %"class.std::basic_ostream", align 8
@.str = private unnamed_addr constant [2 x i8] c" \00", align 1
@llvm.global_ctors = appending global [1 x { i32, void ()*, i8* }] [{ i32, void ()*, i8* } { i32 65535, void ()* @_GLOBAL__sub_I_1370.cpp, i8* null }]

; Function Attrs: noinline uwtable
define internal void @__cxx_global_var_init() #0 section ".text.startup" {
  call void @_ZNSt8ios_base4InitC1Ev(%"class.std::ios_base::Init"* @_ZStL8__ioinit)
  %1 = call i32 @__cxa_atexit(void (i8*)* bitcast (void (%"class.std::ios_base::Init"*)* @_ZNSt8ios_base4InitD1Ev to void (i8*)*), i8* getelementptr inbounds (%"class.std::ios_base::Init", %"class.std::ios_base::Init"* @_ZStL8__ioinit, i32 0, i32 0), i8* @__dso_handle) #3
  ret void
}

declare dso_local void @_ZNSt8ios_base4InitC1Ev(%"class.std::ios_base::Init"*) unnamed_addr #1

; Function Attrs: nounwind
declare dso_local void @_ZNSt8ios_base4InitD1Ev(%"class.std::ios_base::Init"*) unnamed_addr #2

; Function Attrs: nounwind
declare dso_local i32 @__cxa_atexit(void (i8*)*, i8*, i8*) #3

; Function Attrs: noinline norecurse uwtable
define dso_local i32 @main() #4 {
  %1 = alloca i32, align 4
  %2 = alloca i32, align 4
  %3 = alloca i32, align 4
  %4 = alloca i32, align 4
  %5 = alloca [100010 x i32], align 16
  %6 = alloca i32, align 4
  %7 = alloca i32, align 4
  %8 = alloca i32, align 4
  %9 = alloca i32, align 4
  %10 = alloca i32, align 4
  store i32 0, i32* %1, align 4
  store i32 0, i32* %6, align 4
  store i32 0, i32* %10, align 4
  %11 = call dereferenceable(280) %"class.std::basic_istream"* @_ZNSirsERi(%"class.std::basic_istream"* @_ZSt3cin, i32* dereferenceable(4) %2)
  store i32 0, i32* %6, align 4
  br label %12

12:                                               ; preds = %22, %0
  %13 = load i32, i32* %6, align 4
  %14 = load i32, i32* %2, align 4
  %15 = icmp slt i32 %13, %14
  br i1 %15, label %16, label %25

16:                                               ; preds = %12
  %17 = call dereferenceable(280) %"class.std::basic_istream"* @_ZNSirsERi(%"class.std::basic_istream"* @_ZSt3cin, i32* dereferenceable(4) %3)
  %18 = load i32, i32* %3, align 4
  %19 = load i32, i32* %6, align 4
  %20 = sext i32 %19 to i64
  %21 = getelementptr inbounds [100010 x i32], [100010 x i32]* %5, i64 0, i64 %20
  store i32 %18, i32* %21, align 4
  br label %22

22:                                               ; preds = %16
  %23 = load i32, i32* %6, align 4
  %24 = add nsw i32 %23, 1
  store i32 %24, i32* %6, align 4
  br label %12

25:                                               ; preds = %12
  %26 = call dereferenceable(280) %"class.std::basic_istream"* @_ZNSirsERi(%"class.std::basic_istream"* @_ZSt3cin, i32* dereferenceable(4) %4)
  store i32 0, i32* %7, align 4
  br label %27

27:                                               ; preds = %62, %25
  %28 = load i32, i32* %7, align 4
  %29 = load i32, i32* %2, align 4
  %30 = icmp slt i32 %28, %29
  br i1 %30, label %31, label %65

31:                                               ; preds = %27
  %32 = load i32, i32* %7, align 4
  %33 = sext i32 %32 to i64
  %34 = getelementptr inbounds [100010 x i32], [100010 x i32]* %5, i64 0, i64 %33
  %35 = load i32, i32* %34, align 4
  %36 = load i32, i32* %4, align 4
  %37 = icmp eq i32 %35, %36
  br i1 %37, label %38, label %61

38:                                               ; preds = %31
  %39 = load i32, i32* %7, align 4
  store i32 %39, i32* %9, align 4
  br label %40

40:                                               ; preds = %53, %38
  %41 = load i32, i32* %9, align 4
  %42 = load i32, i32* %2, align 4
  %43 = icmp slt i32 %41, %42
  br i1 %43, label %44, label %56

44:                                               ; preds = %40
  %45 = load i32, i32* %9, align 4
  %46 = add nsw i32 %45, 1
  %47 = sext i32 %46 to i64
  %48 = getelementptr inbounds [100010 x i32], [100010 x i32]* %5, i64 0, i64 %47
  %49 = load i32, i32* %48, align 4
  %50 = load i32, i32* %9, align 4
  %51 = sext i32 %50 to i64
  %52 = getelementptr inbounds [100010 x i32], [100010 x i32]* %5, i64 0, i64 %51
  store i32 %49, i32* %52, align 4
  br label %53

53:                                               ; preds = %44
  %54 = load i32, i32* %9, align 4
  %55 = add nsw i32 %54, 1
  store i32 %55, i32* %9, align 4
  br label %40

56:                                               ; preds = %40
  %57 = load i32, i32* %7, align 4
  %58 = sub nsw i32 %57, 1
  store i32 %58, i32* %7, align 4
  %59 = load i32, i32* %10, align 4
  %60 = add nsw i32 %59, 1
  store i32 %60, i32* %10, align 4
  br label %61

61:                                               ; preds = %56, %31
  br label %62

62:                                               ; preds = %61
  %63 = load i32, i32* %7, align 4
  %64 = add nsw i32 %63, 1
  store i32 %64, i32* %7, align 4
  br label %27

65:                                               ; preds = %27
  store i32 0, i32* %8, align 4
  br label %66

66:                                               ; preds = %89, %65
  %67 = load i32, i32* %8, align 4
  %68 = load i32, i32* %2, align 4
  %69 = load i32, i32* %10, align 4
  %70 = sub nsw i32 %68, %69
  %71 = icmp slt i32 %67, %70
  br i1 %71, label %72, label %92

72:                                               ; preds = %66
  %73 = load i32, i32* %8, align 4
  %74 = icmp eq i32 %73, 0
  br i1 %74, label %75, label %81

75:                                               ; preds = %72
  %76 = load i32, i32* %8, align 4
  %77 = sext i32 %76 to i64
  %78 = getelementptr inbounds [100010 x i32], [100010 x i32]* %5, i64 0, i64 %77
  %79 = load i32, i32* %78, align 4
  %80 = call dereferenceable(272) %"class.std::basic_ostream"* @_ZNSolsEi(%"class.std::basic_ostream"* @_ZSt4cout, i32 %79)
  br label %88

81:                                               ; preds = %72
  %82 = call dereferenceable(272) %"class.std::basic_ostream"* @_ZStlsISt11char_traitsIcEERSt13basic_ostreamIcT_ES5_PKc(%"class.std::basic_ostream"* dereferenceable(272) @_ZSt4cout, i8* getelementptr inbounds ([2 x i8], [2 x i8]* @.str, i64 0, i64 0))
  %83 = load i32, i32* %8, align 4
  %84 = sext i32 %83 to i64
  %85 = getelementptr inbounds [100010 x i32], [100010 x i32]* %5, i64 0, i64 %84
  %86 = load i32, i32* %85, align 4
  %87 = call dereferenceable(272) %"class.std::basic_ostream"* @_ZNSolsEi(%"class.std::basic_ostream"* %82, i32 %86)
  br label %88

88:                                               ; preds = %81, %75
  br label %89

89:                                               ; preds = %88
  %90 = load i32, i32* %8, align 4
  %91 = add nsw i32 %90, 1
  store i32 %91, i32* %8, align 4
  br label %66

92:                                               ; preds = %66
  ret i32 0
}

declare dso_local dereferenceable(280) %"class.std::basic_istream"* @_ZNSirsERi(%"class.std::basic_istream"*, i32* dereferenceable(4)) #1

declare dso_local dereferenceable(272) %"class.std::basic_ostream"* @_ZNSolsEi(%"class.std::basic_ostream"*, i32) #1

declare dso_local dereferenceable(272) %"class.std::basic_ostream"* @_ZStlsISt11char_traitsIcEERSt13basic_ostreamIcT_ES5_PKc(%"class.std::basic_ostream"* dereferenceable(272), i8*) #1

; Function Attrs: noinline uwtable
define internal void @_GLOBAL__sub_I_1370.cpp() #0 section ".text.startup" {
  call void @__cxx_global_var_init()
  ret void
}


!llvm.module.flags = !{!0}
!llvm.ident = !{!1}

!0 = !{i32 1, !"wchar_size", i32 4}
!1 = !{!"clang version 10.0.0-4ubuntu1 "}
